target datalayout = "e-m:e-p270:32:32-p271:32:32-p272:64:64-i64:64-i128:128-f80:128-n8:16:32:64-S128"
target triple = "x86_64-pc-linux-gnu"

%"class.duckdb::BaseStatistics" = type { %"struct.duckdb::LogicalType", i8, i8, i64, %union.anon, %"class.duckdb::unique_ptr" }
%"struct.duckdb::LogicalType" = type { i8, i8, %"class.duckdb::shared_ptr" }
%"class.duckdb::shared_ptr" = type { %"class.std::shared_ptr" }
%"class.std::shared_ptr" = type { %"class.std::__shared_ptr" }
%"class.std::__shared_ptr" = type { ptr, %"class.std::__shared_count" }
%"class.std::__shared_count" = type { ptr }
%union.anon = type { %"struct.duckdb::NumericStatsData" }
%"struct.duckdb::NumericStatsData" = type { i8, i8, %"struct.duckdb::NumericValueUnion", %"struct.duckdb::NumericValueUnion" }
%"struct.duckdb::NumericValueUnion" = type { %"union.duckdb::NumericValueUnion::Val" }
%"union.duckdb::NumericValueUnion::Val" = type { %"struct.duckdb::hugeint_t" }
%"struct.duckdb::hugeint_t" = type { i64, i64 }
%"class.duckdb::unique_ptr" = type { %"class.std::unique_ptr" }
%"class.std::unique_ptr" = type { %"struct.std::__uniq_ptr_data" }
%"struct.std::__uniq_ptr_data" = type { %"class.std::__uniq_ptr_impl" }
%"class.std::__uniq_ptr_impl" = type { %"class.std::tuple" }
%"class.std::tuple" = type { %"struct.std::_Tuple_impl" }
%"struct.std::_Tuple_impl" = type { %"struct.std::_Head_base.1" }
%"struct.std::_Head_base.1" = type { ptr }
%"struct.duckdb::StringStatsData" = type { [8 x i8], [8 x i8], i8, i8, i32 }

@_ZN6duckdb14BaseStatisticsC1ENS_11LogicalTypeE = unnamed_addr alias void (ptr, ptr), ptr @_ZN6duckdb14BaseStatisticsC2ENS_11LogicalTypeE
@_ZN6duckdb14BaseStatisticsD1Ev = unnamed_addr alias void (ptr), ptr @_ZN6duckdb14BaseStatisticsD2Ev

; Function Attrs: mustprogress nounwind uwtable
define noundef nonnull align 4 dereferenceable(24) ptr @_ZN6duckdb11StringStats13GetDataUnsafeERNS_14BaseStatisticsE(ptr noundef nonnull align 8 dereferenceable(88) %0) #6 align 2 {
  %2 = alloca ptr, align 8
  store ptr %0, ptr %2, align 8, !tbaa !3
  %3 = load ptr, ptr %2, align 8, !tbaa !3
  %4 = getelementptr inbounds nuw %"class.duckdb::BaseStatistics", ptr %3, i32 0, i32 4
  ret ptr %4
}

; Function Attrs: mustprogress nounwind uwtable
define void @_ZN6duckdb14BaseStatistics15InitializeEmptyEv(ptr noundef nonnull align 8 dereferenceable(88) %0) #6 align 2 {
  %2 = alloca ptr, align 8
  store ptr %0, ptr %2, align 8, !tbaa !3
  %3 = load ptr, ptr %2, align 8
  %4 = getelementptr inbounds nuw %"class.duckdb::BaseStatistics", ptr %3, i32 0, i32 1
  store i8 0, ptr %4, align 8, !tbaa !43
  %5 = getelementptr inbounds nuw %"class.duckdb::BaseStatistics", ptr %3, i32 0, i32 2
  store i8 1, ptr %5, align 1, !tbaa !46
  ret void
}

; Function Attrs: mustprogress uwtable
define void @_ZN6duckdb11StringStats11CreateEmptyENS_11LogicalTypeE(ptr dead_on_unwind noalias writable sret(%"class.duckdb::BaseStatistics") align 8 %0, ptr noundef %1) #4 align 2 personality ptr @__gxx_personality_v0 {
  %3 = alloca ptr, align 8
  %4 = alloca ptr, align 8
  %5 = alloca i1, align 1
  %6 = alloca %"struct.duckdb::LogicalType", align 8
  %7 = alloca ptr, align 8
  %8 = alloca i32, align 4
  %9 = alloca ptr, align 8
  %10 = alloca i64, align 8
  store ptr %0, ptr %3, align 8
  store ptr %1, ptr %4, align 8, !tbaa !10
  store i1 false, ptr %5, align 1
  call void @_ZN6duckdb11LogicalTypeC1EOS0_(ptr noundef nonnull align 8 dereferenceable(24) %6, ptr noundef nonnull align 8 dereferenceable(24) %1) #3
  invoke void @_ZN6duckdb14BaseStatisticsC1ENS_11LogicalTypeE(ptr noundef nonnull align 8 dereferenceable(88) %0, ptr noundef %6)
          to label %11 unwind label %18

11:                                               ; preds = %2
  call void @_ZN6duckdb11LogicalTypeD1Ev(ptr noundef nonnull align 8 dereferenceable(24) %6) #3
  call void @_ZN6duckdb14BaseStatistics15InitializeEmptyEv(ptr noundef nonnull align 8 dereferenceable(88) %0)
  call void @llvm.lifetime.start.p0(i64 8, ptr %9) #3
  %12 = invoke noundef nonnull align 4 dereferenceable(24) ptr @_ZN6duckdb11StringStats13GetDataUnsafeERNS_14BaseStatisticsE(ptr noundef nonnull align 8 dereferenceable(88) %0)
          to label %13 unwind label %22

13:                                               ; preds = %11
  store ptr %12, ptr %9, align 8, !tbaa !49
  call void @llvm.lifetime.start.p0(i64 8, ptr %10) #3
  store i64 0, ptr %10, align 8, !tbaa !40
  br label %14

14:                                               ; preds = %35, %13
  %15 = load i64, ptr %10, align 8, !tbaa !40
  %16 = icmp ult i64 %15, 8
  br i1 %16, label %26, label %17

17:                                               ; preds = %14
  call void @llvm.lifetime.end.p0(i64 8, ptr %10) #3
  br label %38

18:                                               ; preds = %2
  %19 = landingpad { ptr, i32 }
          cleanup
  %20 = extractvalue { ptr, i32 } %19, 0
  store ptr %20, ptr %7, align 8
  %21 = extractvalue { ptr, i32 } %19, 1
  store i32 %21, ptr %8, align 4
  call void @_ZN6duckdb11LogicalTypeD1Ev(ptr noundef nonnull align 8 dereferenceable(24) %6) #3
  br label %48

22:                                               ; preds = %11
  %23 = landingpad { ptr, i32 }
          cleanup
  %24 = extractvalue { ptr, i32 } %23, 0
  store ptr %24, ptr %7, align 8
  %25 = extractvalue { ptr, i32 } %23, 1
  store i32 %25, ptr %8, align 4
  call void @llvm.lifetime.end.p0(i64 8, ptr %9) #3
  call void @_ZN6duckdb14BaseStatisticsD1Ev(ptr noundef nonnull align 8 dereferenceable(88) %0) #3
  br label %48

26:                                               ; preds = %14
  %27 = load ptr, ptr %9, align 8, !tbaa !49
  %28 = getelementptr inbounds nuw %"struct.duckdb::StringStatsData", ptr %27, i32 0, i32 0
  %29 = load i64, ptr %10, align 8, !tbaa !40
  %30 = getelementptr inbounds nuw [8 x i8], ptr %28, i64 0, i64 %29
  store i8 -1, ptr %30, align 1, !tbaa !48
  %31 = load ptr, ptr %9, align 8, !tbaa !49
  %32 = getelementptr inbounds nuw %"struct.duckdb::StringStatsData", ptr %31, i32 0, i32 1
  %33 = load i64, ptr %10, align 8, !tbaa !40
  %34 = getelementptr inbounds nuw [8 x i8], ptr %32, i64 0, i64 %33
  store i8 0, ptr %34, align 1, !tbaa !48
  br label %35

35:                                               ; preds = %26
  %36 = load i64, ptr %10, align 8, !tbaa !40
  %37 = add i64 %36, 1
  store i64 %37, ptr %10, align 8, !tbaa !40
  br label %14, !llvm.loop !59

38:                                               ; preds = %17
  %39 = load ptr, ptr %9, align 8, !tbaa !49
  %40 = getelementptr inbounds nuw %"struct.duckdb::StringStatsData", ptr %39, i32 0, i32 4
  store i32 0, ptr %40, align 4, !tbaa !55
  %41 = load ptr, ptr %9, align 8, !tbaa !49
  %42 = getelementptr inbounds nuw %"struct.duckdb::StringStatsData", ptr %41, i32 0, i32 3
  store i8 1, ptr %42, align 1, !tbaa !54
  %43 = load ptr, ptr %9, align 8, !tbaa !49
  %44 = getelementptr inbounds nuw %"struct.duckdb::StringStatsData", ptr %43, i32 0, i32 2
  store i8 0, ptr %44, align 4, !tbaa !51
  store i1 true, ptr %5, align 1
  call void @llvm.lifetime.end.p0(i64 8, ptr %9) #3
  %45 = load i1, ptr %5, align 1
  br i1 %45, label %47, label %46

46:                                               ; preds = %38
  call void @_ZN6duckdb14BaseStatisticsD1Ev(ptr noundef nonnull align 8 dereferenceable(88) %0) #3
  br label %47

47:                                               ; preds = %46, %38
  ret void

48:                                               ; preds = %22, %18
  %49 = load ptr, ptr %7, align 8
  %50 = load i32, ptr %8, align 4
  %51 = insertvalue { ptr, i32 } poison, ptr %49, 0
  %52 = insertvalue { ptr, i32 } %51, i32 %50, 1
  resume { ptr, i32 } %52
}