; Function Attrs: mustprogress uwtable
define void @_ZN6duckdb11StringStats11CreateEmptyENS_11LogicalTypeE(ptr dead_on_unwind noalias writable sret(%"class.duckdb::BaseStatistics") align 8 %0, ptr noundef nonnull %1) local_unnamed_addr #3 align 2 personality ptr @__gxx_personality_v0 {
  %3 = alloca %"struct.duckdb::LogicalType", align 8
  call void @_ZN6duckdb11LogicalTypeC1EOS0_(ptr noundef nonnull align 8 dereferenceable(24) %3, ptr noundef nonnull align 8 dereferenceable(24) %1) #29
  invoke void @_ZN6duckdb14BaseStatisticsC1ENS_11LogicalTypeE(ptr noundef nonnull align 8 dereferenceable(88) %0, ptr noundef nonnull %3)
          to label %4 unwind label %12

4:                                                ; preds = %2
  call void @_ZN6duckdb11LogicalTypeD1Ev(ptr noundef nonnull align 8 dereferenceable(24) %3) #29
  %5 = getelementptr inbounds nuw i8, ptr %0, i64 24
  store i8 0, ptr %5, align 8, !tbaa !49
  %6 = getelementptr inbounds nuw i8, ptr %0, i64 25
  store i8 1, ptr %6, align 1, !tbaa !52
  %7 = getelementptr inbounds nuw i8, ptr %0, i64 40
  %8 = getelementptr inbounds nuw i8, ptr %0, i64 48
  store i64 -1, ptr %7, align 8
  store i64 0, ptr %8, align 8
  %9 = getelementptr inbounds nuw i8, ptr %0, i64 60
  store i32 0, ptr %9, align 4, !tbaa !58
  %10 = getelementptr inbounds nuw i8, ptr %0, i64 57
  store i8 1, ptr %10, align 1, !tbaa !57
  %11 = getelementptr inbounds nuw i8, ptr %0, i64 56
  store i8 0, ptr %11, align 8, !tbaa !55
  ret void

12:                                               ; preds = %2
  %13 = landingpad { ptr, i32 }
          cleanup
  call void @_ZN6duckdb11LogicalTypeD1Ev(ptr noundef nonnull align 8 dereferenceable(24) %3) #29
  resume { ptr, i32 } %13
}